target datalayout = "e-m:e-p270:32:32-p271:32:32-p272:64:64-i64:64-i128:128-f80:128-n8:16:32:64-S128"
target triple = "x86_64-unknown-linux-gnu"

%"class.pugi::xml_node" = type { ptr }
%"class.pugi::xml_named_node_iterator" = type { %"class.pugi::xml_node", %"class.pugi::xml_node", ptr }

; Function Attrs: mustprogress nounwind uwtable
define noundef zeroext i1 @_ZNK4pugi23xml_named_node_iteratorneERKS0_(ptr noundef nonnull align 8 dereferenceable(24) %this, ptr noundef nonnull align 8 dereferenceable(24) %rhs) #0 align 2 {
entry:
  %this.addr = alloca ptr, align 8
  %rhs.addr = alloca ptr, align 8
  store ptr %this, ptr %this.addr, align 8
  store ptr %rhs, ptr %rhs.addr, align 8
  %this1 = load ptr, ptr %this.addr, align 8
  %_wrap = getelementptr inbounds %"class.pugi::xml_named_node_iterator", ptr %this1, i32 0, i32 0
  %_root = getelementptr inbounds %"class.pugi::xml_node", ptr %_wrap, i32 0, i32 0
  %0 = load ptr, ptr %_root, align 8
  %1 = load ptr, ptr %rhs.addr, align 8
  %_wrap2 = getelementptr inbounds %"class.pugi::xml_named_node_iterator", ptr %1, i32 0, i32 0
  %_root3 = getelementptr inbounds %"class.pugi::xml_node", ptr %_wrap2, i32 0, i32 0
  %2 = load ptr, ptr %_root3, align 8
  %cmp = icmp ne ptr %0, %2
  br i1 %cmp, label %lor.end, label %lor.rhs

lor.rhs:                                          ; preds = %entry
  %_parent = getelementptr inbounds %"class.pugi::xml_named_node_iterator", ptr %this1, i32 0, i32 1
  %_root4 = getelementptr inbounds %"class.pugi::xml_node", ptr %_parent, i32 0, i32 0
  %3 = load ptr, ptr %_root4, align 8
  %4 = load ptr, ptr %rhs.addr, align 8
  %_parent5 = getelementptr inbounds %"class.pugi::xml_named_node_iterator", ptr %4, i32 0, i32 1
  %_root6 = getelementptr inbounds %"class.pugi::xml_node", ptr %_parent5, i32 0, i32 0
  %5 = load ptr, ptr %_root6, align 8
  %cmp7 = icmp ne ptr %3, %5
  br label %lor.end

lor.end:                                          ; preds = %lor.rhs, %entry
  %6 = phi i1 [ true, %entry ], [ %cmp7, %lor.rhs ]
  ret i1 %6
}